#include <math.h>
#include <stdio.h>
#include <stdlib.h>
#include <string.h>

int main()
{
	int k,i,j,h,m,n;
	int sum=0,minus=0;
	int a[100][100];
	int b[100];
	scanf("%d",&k);
	for(h=0;h<k;h++)
	{
		scanf("%d%d",&m,&n);
		for(i=0;i<m;i++)
		{
			for(j=0;j<n;j++)
			{
				scanf("%d",&a[i][j]);
				sum+=a[i][j];
			}
		}
		for(i=1;i<m-1;i++)
		{
			for(j=1;j<n-1;j++)
			{
				minus+=a[i][j];
			}
		}
		b[h]=sum-minus;
		sum=0;
		minus=0;
	}
     for(h=0;h<k;h++) 
	 {
		 printf("%d\n",b[h]);
	 }
	     return 0;
}
	  

	    